target datalayout = "e-m:e-p270:32:32-p271:32:32-p272:64:64-i64:64-i128:128-f80:128-n8:16:32:64-S128"
target triple = "x86_64-pc-linux-gnu"

%struct.X509_VERIFY_PARAM_st = type { ptr, i64, i64, i64, i32, i32, i32, ptr, ptr }
%struct.X509_VERIFY_PARAM_ID_st = type { ptr, i32, ptr, ptr, i64, ptr, i64 }

; Function Attrs: nounwind uwtable
define internal i32 @int_x509_param_set1(ptr noundef %0, ptr noundef %1, ptr noundef %2, i64 noundef %3) #0 {
  %5 = alloca i32, align 4
  %6 = alloca ptr, align 8
  %7 = alloca ptr, align 8
  %8 = alloca ptr, align 8
  %9 = alloca i64, align 8
  %10 = alloca ptr, align 8
  %11 = alloca i32, align 4
  store ptr %0, ptr %6, align 8, !tbaa !44
  store ptr %1, ptr %7, align 8, !tbaa !46
  store ptr %2, ptr %8, align 8, !tbaa !43
  store i64 %3, ptr %9, align 8, !tbaa !34
  call void @llvm.lifetime.start.p0(i64 8, ptr %10) #7
  %12 = load ptr, ptr %8, align 8, !tbaa !43
  %13 = icmp ne ptr %12, null
  br i1 %13, label %14, label %31

14:                                               ; preds = %4
  %15 = load i64, ptr %9, align 8, !tbaa !34
  %16 = icmp eq i64 %15, 0
  br i1 %16, label %17, label %22

17:                                               ; preds = %14
  %18 = load ptr, ptr %8, align 8, !tbaa !43
  %19 = call ptr @BUF_strdup(ptr noundef %18)
  store ptr %19, ptr %10, align 8, !tbaa !48
  %20 = load ptr, ptr %8, align 8, !tbaa !43
  %21 = call i64 @strlen(ptr noundef %20) #9
  store i64 %21, ptr %9, align 8, !tbaa !34
  br label %26

22:                                               ; preds = %14
  %23 = load ptr, ptr %8, align 8, !tbaa !43
  %24 = load i64, ptr %9, align 8, !tbaa !34
  %25 = call ptr @BUF_memdup(ptr noundef %23, i64 noundef %24)
  store ptr %25, ptr %10, align 8, !tbaa !48
  br label %26

26:                                               ; preds = %22, %17
  %27 = load ptr, ptr %10, align 8, !tbaa !48
  %28 = icmp ne ptr %27, null
  br i1 %28, label %30, label %29

29:                                               ; preds = %26
  store i32 0, ptr %5, align 4
  store i32 1, ptr %11, align 4
  br label %48

30:                                               ; preds = %26
  br label %32

31:                                               ; preds = %4
  store ptr null, ptr %10, align 8, !tbaa !48
  store i64 0, ptr %9, align 8, !tbaa !34
  br label %32

32:                                               ; preds = %31, %30
  %33 = load ptr, ptr %6, align 8, !tbaa !44
  %34 = load ptr, ptr %33, align 8, !tbaa !43
  %35 = icmp ne ptr %34, null
  br i1 %35, label %36, label %39

36:                                               ; preds = %32
  %37 = load ptr, ptr %6, align 8, !tbaa !44
  %38 = load ptr, ptr %37, align 8, !tbaa !43
  call void @free(ptr noundef %38) #7
  br label %39

39:                                               ; preds = %36, %32
  %40 = load ptr, ptr %10, align 8, !tbaa !48
  %41 = load ptr, ptr %6, align 8, !tbaa !44
  store ptr %40, ptr %41, align 8, !tbaa !43
  %42 = load ptr, ptr %7, align 8, !tbaa !46
  %43 = icmp ne ptr %42, null
  br i1 %43, label %44, label %47

44:                                               ; preds = %39
  %45 = load i64, ptr %9, align 8, !tbaa !34
  %46 = load ptr, ptr %7, align 8, !tbaa !46
  store i64 %45, ptr %46, align 8, !tbaa !34
  br label %47

47:                                               ; preds = %44, %39
  store i32 1, ptr %5, align 4
  store i32 1, ptr %11, align 4
  br label %48

48:                                               ; preds = %47, %29
  call void @llvm.lifetime.end.p0(i64 8, ptr %10) #7
  %49 = load i32, ptr %5, align 4
  ret i32 %49
}

; Function Attrs: nounwind uwtable
define hidden i32 @X509_VERIFY_PARAM_set1_email(ptr noundef %0, ptr noundef %1, i64 noundef %2) #0 {
  %4 = alloca ptr, align 8
  %5 = alloca ptr, align 8
  %6 = alloca i64, align 8
  store ptr %0, ptr %4, align 8, !tbaa !6
  store ptr %1, ptr %5, align 8, !tbaa !43
  store i64 %2, ptr %6, align 8, !tbaa !34
  %7 = load ptr, ptr %4, align 8, !tbaa !6
  %8 = getelementptr inbounds nuw %struct.X509_VERIFY_PARAM_st, ptr %7, i32 0, i32 8
  %9 = load ptr, ptr %8, align 8, !tbaa !13
  %10 = getelementptr inbounds nuw %struct.X509_VERIFY_PARAM_ID_st, ptr %9, i32 0, i32 3
  %11 = load ptr, ptr %4, align 8, !tbaa !6
  %12 = getelementptr inbounds nuw %struct.X509_VERIFY_PARAM_st, ptr %11, i32 0, i32 8
  %13 = load ptr, ptr %12, align 8, !tbaa !13
  %14 = getelementptr inbounds nuw %struct.X509_VERIFY_PARAM_ID_st, ptr %13, i32 0, i32 4
  %15 = load ptr, ptr %5, align 8, !tbaa !43
  %16 = load i64, ptr %6, align 8, !tbaa !34
  %17 = call i32 @int_x509_param_set1(ptr noundef %10, ptr noundef %14, ptr noundef %15, i64 noundef %16)
  ret i32 %17
}