; Function Attrs: nounwind uwtable
define hidden range(i32 0, 2) i32 @X509_VERIFY_PARAM_set1_email(ptr noundef readonly captures(none) %0, ptr noundef %1, i64 noundef %2) local_unnamed_addr #0 {
  %4 = getelementptr inbounds nuw i8, ptr %0, i64 56
  %5 = load ptr, ptr %4, align 8, !tbaa !6
  %6 = getelementptr inbounds nuw i8, ptr %5, i64 24
  %7 = getelementptr inbounds nuw i8, ptr %5, i64 32
  %.not.i = icmp eq ptr %1, null
  br i1 %.not.i, label %16, label %8

8:                                                ; preds = %3
  %9 = icmp eq i64 %2, 0
  br i1 %9, label %10, label %13

10:                                               ; preds = %8
  %11 = tail call ptr @BUF_strdup(ptr noundef nonnull %1) #16
  %12 = tail call i64 @strlen(ptr noundef nonnull dereferenceable(1) %1) #17
  br label %15

13:                                               ; preds = %8
  %14 = tail call ptr @BUF_memdup(ptr noundef nonnull %1, i64 noundef %2) #16
  br label %15

15:                                               ; preds = %13, %10
  %.014.i = phi i64 [ %12, %10 ], [ %2, %13 ]
  %.0.i = phi ptr [ %11, %10 ], [ %14, %13 ]
  %.not21.i = icmp eq ptr %.0.i, null
  br i1 %.not21.i, label %int_x509_param_set1.exit, label %16

16:                                               ; preds = %15, %3
  %.115.i = phi i64 [ %.014.i, %15 ], [ 0, %3 ]
  %.1.i = phi ptr [ %.0.i, %15 ], [ null, %3 ]
  %17 = load ptr, ptr %6, align 8, !tbaa !32
  %.not22.i = icmp eq ptr %17, null
  br i1 %.not22.i, label %19, label %18

18:                                               ; preds = %16
  tail call void @free(ptr noundef nonnull %17) #16
  br label %19

19:                                               ; preds = %18, %16
  store ptr %.1.i, ptr %6, align 8, !tbaa !32
  store i64 %.115.i, ptr %7, align 8, !tbaa !33
  br label %int_x509_param_set1.exit

int_x509_param_set1.exit:                         ; preds = %15, %19
  %.016.i = phi i32 [ 0, %15 ], [ 1, %19 ]
  ret i32 %.016.i
}